; Function Attrs: mustprogress uwtable
define void @_ZNK5Ipopt6Matrix18SinvBlrmZMTdBrImplEdRKNS_6VectorES3_S3_S3_RS1_(ptr noundef nonnull align 8 dereferenceable(69) %0, double noundef %1, ptr noundef nonnull align 8 dereferenceable(205) %2, ptr noundef nonnull align 8 dereferenceable(205) %3, ptr noundef nonnull align 8 dereferenceable(205) %4, ptr noundef nonnull align 8 dereferenceable(205) %5, ptr noundef nonnull align 8 dereferenceable(205) %6) unnamed_addr #0 align 2 {
  %8 = load ptr, ptr %0, align 8
  %9 = getelementptr inbounds i8, ptr %8, i64 40
  %10 = load ptr, ptr %9, align 8
  tail call void %10(ptr noundef nonnull align 8 dereferenceable(69) %0, double noundef %1, ptr noundef nonnull align 8 dereferenceable(205) %5, double noundef 0.000000e+00, ptr noundef nonnull align 8 dereferenceable(205) %6)
  %11 = load ptr, ptr %6, align 8
  %12 = getelementptr inbounds i8, ptr %11, i64 88
  %13 = load ptr, ptr %12, align 8
  tail call void %13(ptr noundef nonnull align 8 dereferenceable(205) %6, ptr noundef nonnull align 8 dereferenceable(205) %4)
  tail call void @_ZN5Ipopt12TaggedObject13ObjectChangedEv(ptr noundef nonnull align 8 dereferenceable(56) %6)
  %14 = load ptr, ptr %6, align 8
  %15 = getelementptr inbounds i8, ptr %14, i64 32
  %16 = load ptr, ptr %15, align 8
  tail call void %16(ptr noundef nonnull align 8 dereferenceable(205) %6, double noundef 1.000000e+00, ptr noundef nonnull align 8 dereferenceable(205) %3)
  tail call void @_ZN5Ipopt12TaggedObject13ObjectChangedEv(ptr noundef nonnull align 8 dereferenceable(56) %6)
  %17 = load ptr, ptr %6, align 8
  %18 = getelementptr inbounds i8, ptr %17, i64 80
  %19 = load ptr, ptr %18, align 8
  tail call void %19(ptr noundef nonnull align 8 dereferenceable(205) %6, ptr noundef nonnull align 8 dereferenceable(205) %2)
  tail call void @_ZN5Ipopt12TaggedObject13ObjectChangedEv(ptr noundef nonnull align 8 dereferenceable(56) %6)
  ret void
}